; Function Attrs: mustprogress nofree norecurse nosync nounwind willreturn memory(readwrite, inaccessiblemem: none) uwtable
define internal ptr @func_get_annotate(ptr noundef readonly captures(none) %0, ptr readnone captures(none) %1) #3 {
  %3 = getelementptr inbounds nuw i8, ptr %0, i64 120
  %4 = load ptr, ptr %3, align 8, !tbaa !144
  %5 = icmp eq ptr %4, null
  br i1 %5, label %_Py_NewRef.exit, label %6

6:                                                ; preds = %2
  %7 = load i32, ptr %4, align 8, !tbaa !99
  %8 = icmp slt i32 %7, 0
  br i1 %8, label %_Py_NewRef.exit, label %9

9:                                                ; preds = %6
  %10 = add nuw i32 %7, 1
  store i32 %10, ptr %4, align 8, !tbaa !99
  br label %_Py_NewRef.exit

_Py_NewRef.exit:                                  ; preds = %9, %6, %2
  %.0 = phi ptr [ @_Py_NoneStruct, %2 ], [ %4, %6 ], [ %4, %9 ]
  ret ptr %.0
}